target datalayout = "e-m:e-p270:32:32-p271:32:32-p272:64:64-i64:64-i128:128-f80:128-n8:16:32:64-S128"
target triple = "x86_64-pc-linux-gnu"

%"class.OpenImageIO::v3_1_0::ustring" = type { ptr }

@.str.11 = private unnamed_addr constant [14 x i8] c"Webp {}.{}.{}\00", align 1

; Function Attrs: mustprogress nounwind uwtable
define linkonce_odr noundef ptr @_ZNK11OpenImageIO6v3_1_07ustring5c_strEv(ptr noundef nonnull align 8 dereferenceable(8) %0) #7 comdat align 2 {
  %2 = alloca ptr, align 8
  store ptr %0, ptr %2, align 8, !tbaa !154
  %3 = load ptr, ptr %2, align 8
  %4 = getelementptr inbounds nuw %"class.OpenImageIO::v3_1_0::ustring", ptr %3, i32 0, i32 0
  %5 = load ptr, ptr %4, align 8, !tbaa !156
  ret ptr %5
}

; Function Attrs: mustprogress uwtable
define noundef ptr @_ZN11OpenImageIO6v3_1_028webp_imageio_library_versionEv() #6 {
  %1 = alloca i32, align 4
  %2 = alloca %"class.OpenImageIO::v3_1_0::ustring", align 8
  %3 = alloca i32, align 4
  %4 = alloca i32, align 4
  %5 = alloca i32, align 4
  call void @llvm.lifetime.start.p0(i64 4, ptr %1) #3
  %6 = call i32 @WebPGetDecoderVersion()
  store i32 %6, ptr %1, align 4, !tbaa !72
  call void @llvm.lifetime.start.p0(i64 8, ptr %2) #3
  call void @llvm.lifetime.start.p0(i64 4, ptr %3) #3
  %7 = load i32, ptr %1, align 4, !tbaa !72
  %8 = ashr i32 %7, 16
  store i32 %8, ptr %3, align 4, !tbaa !72
  call void @llvm.lifetime.start.p0(i64 4, ptr %4) #3
  %9 = load i32, ptr %1, align 4, !tbaa !72
  %10 = ashr i32 %9, 8
  %11 = and i32 %10, 255
  store i32 %11, ptr %4, align 4, !tbaa !72
  call void @llvm.lifetime.start.p0(i64 4, ptr %5) #3
  %12 = load i32, ptr %1, align 4, !tbaa !72
  %13 = and i32 %12, 255
  store i32 %13, ptr %5, align 4, !tbaa !72
  %14 = call ptr @_ZN11OpenImageIO6v3_1_07ustring9fmtformatIJiiiEEES1_PKcDpRKT_(ptr noundef @.str.11, ptr noundef nonnull align 4 dereferenceable(4) %3, ptr noundef nonnull align 4 dereferenceable(4) %4, ptr noundef nonnull align 4 dereferenceable(4) %5)
  %15 = getelementptr inbounds nuw %"class.OpenImageIO::v3_1_0::ustring", ptr %2, i32 0, i32 0
  store ptr %14, ptr %15, align 8
  %16 = call noundef ptr @_ZNK11OpenImageIO6v3_1_07ustring5c_strEv(ptr noundef nonnull align 8 dereferenceable(8) %2) #3
  call void @llvm.lifetime.end.p0(i64 4, ptr %5) #3
  call void @llvm.lifetime.end.p0(i64 4, ptr %4) #3
  call void @llvm.lifetime.end.p0(i64 4, ptr %3) #3
  call void @llvm.lifetime.end.p0(i64 8, ptr %2) #3
  call void @llvm.lifetime.end.p0(i64 4, ptr %1) #3
  ret ptr %16
}