; Function Attrs: mustprogress uwtable
define noundef ptr @_ZN11OpenImageIO6v3_1_028webp_imageio_library_versionEv() local_unnamed_addr #5 {
  %1 = alloca i32, align 4
  %2 = alloca i32, align 4
  %3 = alloca i32, align 4
  %4 = tail call i32 @WebPGetDecoderVersion()
  call void @llvm.lifetime.start.p0(i64 4, ptr nonnull %1) #24
  %5 = ashr i32 %4, 16
  store i32 %5, ptr %1, align 4, !tbaa !84
  call void @llvm.lifetime.start.p0(i64 4, ptr nonnull %2) #24
  %6 = lshr i32 %4, 8
  %7 = and i32 %6, 255
  store i32 %7, ptr %2, align 4, !tbaa !84
  call void @llvm.lifetime.start.p0(i64 4, ptr nonnull %3) #24
  %8 = and i32 %4, 255
  store i32 %8, ptr %3, align 4, !tbaa !84
  %9 = call ptr @_ZN11OpenImageIO6v3_1_07ustring9fmtformatIJiiiEEES1_PKcDpRKT_(ptr noundef nonnull @.str.11, ptr noundef nonnull align 4 dereferenceable(4) %1, ptr noundef nonnull align 4 dereferenceable(4) %2, ptr noundef nonnull align 4 dereferenceable(4) %3)
  call void @llvm.lifetime.end.p0(i64 4, ptr nonnull %3) #24
  call void @llvm.lifetime.end.p0(i64 4, ptr nonnull %2) #24
  call void @llvm.lifetime.end.p0(i64 4, ptr nonnull %1) #24
  ret ptr %9
}